(lp0
S'poi'
p1
aS'salary'
p2
aS'bonus'
p3
aS'ratio_of_bonus_salary'
p4
aS'total_stock_value'
p5
aS'exercised_stock_options'
p6
aS'percentage_from_this_person_to_poi'
p7
aS'shared_receipt_with_poi'
p8
a.